target datalayout = "e-m:e-p270:32:32-p271:32:32-p272:64:64-i64:64-i128:128-f80:128-n8:16:32:64-S128"
target triple = "x86_64-pc-linux-gnu"

%struct.Vec_Wrd_t_ = type { i32, i32, ptr }

@.str = private unnamed_addr constant [3 x i8] c"rb\00", align 1
@.str.1 = private unnamed_addr constant [36 x i8] c"Cannot open file \22%s\22 for reading.\0A\00", align 1
@.str.8 = private unnamed_addr constant [88 x i8] c"Cannot read file with simulation data that is not aligned at 8 bytes (remainder = %d).\0A\00", align 1
@.str.42 = private unnamed_addr constant [31 x i8] c"Error reading data from file.\0A\00", align 1
@.str.44 = private unnamed_addr constant [26 x i8] c"The input file is empty.\0A\00", align 1
@.str.45 = private unnamed_addr constant [50 x i8] c"Read %d words of simulation data from file \22%s\22.\0A\00", align 1

; Function Attrs: inlinehint nounwind uwtable
define internal ptr @Vec_WrdAlloc(i32 noundef %0) #3 {
  %2 = alloca i32, align 4
  %3 = alloca ptr, align 8
  store i32 %0, ptr %2, align 4, !tbaa !14
  call void @llvm.lifetime.start.p0(i64 8, ptr %3) #13
  %4 = call noalias ptr @malloc(i64 noundef 16) #15
  store ptr %4, ptr %3, align 8, !tbaa !71
  %5 = load i32, ptr %2, align 4, !tbaa !14
  %6 = icmp sgt i32 %5, 0
  br i1 %6, label %7, label %11

7:                                                ; preds = %1
  %8 = load i32, ptr %2, align 4, !tbaa !14
  %9 = icmp slt i32 %8, 16
  br i1 %9, label %10, label %11

10:                                               ; preds = %7
  store i32 16, ptr %2, align 4, !tbaa !14
  br label %11

11:                                               ; preds = %10, %7, %1
  %12 = load ptr, ptr %3, align 8, !tbaa !71
  %13 = getelementptr inbounds nuw %struct.Vec_Wrd_t_, ptr %12, i32 0, i32 1
  store i32 0, ptr %13, align 4, !tbaa !76
  %14 = load i32, ptr %2, align 4, !tbaa !14
  %15 = load ptr, ptr %3, align 8, !tbaa !71
  %16 = getelementptr inbounds nuw %struct.Vec_Wrd_t_, ptr %15, i32 0, i32 0
  store i32 %14, ptr %16, align 8, !tbaa !197
  %17 = load ptr, ptr %3, align 8, !tbaa !71
  %18 = getelementptr inbounds nuw %struct.Vec_Wrd_t_, ptr %17, i32 0, i32 0
  %19 = load i32, ptr %18, align 8, !tbaa !197
  %20 = icmp ne i32 %19, 0
  br i1 %20, label %21, label %28

21:                                               ; preds = %11
  %22 = load ptr, ptr %3, align 8, !tbaa !71
  %23 = getelementptr inbounds nuw %struct.Vec_Wrd_t_, ptr %22, i32 0, i32 0
  %24 = load i32, ptr %23, align 8, !tbaa !197
  %25 = sext i32 %24 to i64
  %26 = mul i64 8, %25
  %27 = call noalias ptr @malloc(i64 noundef %26) #15
  br label %29

28:                                               ; preds = %11
  br label %29

29:                                               ; preds = %28, %21
  %30 = phi ptr [ %27, %21 ], [ null, %28 ]
  %31 = load ptr, ptr %3, align 8, !tbaa !71
  %32 = getelementptr inbounds nuw %struct.Vec_Wrd_t_, ptr %31, i32 0, i32 2
  store ptr %30, ptr %32, align 8, !tbaa !78
  %33 = load ptr, ptr %3, align 8, !tbaa !71
  call void @llvm.lifetime.end.p0(i64 8, ptr %3) #13
  ret ptr %33
}

; Function Attrs: inlinehint nounwind uwtable
define internal ptr @Vec_WrdArray(ptr noundef %0) #3 {
  %2 = alloca ptr, align 8
  store ptr %0, ptr %2, align 8, !tbaa !71
  %3 = load ptr, ptr %2, align 8, !tbaa !71
  %4 = getelementptr inbounds nuw %struct.Vec_Wrd_t_, ptr %3, i32 0, i32 2
  %5 = load ptr, ptr %4, align 8, !tbaa !78
  ret ptr %5
}

; Function Attrs: inlinehint nounwind uwtable
define internal ptr @Vec_WrdStart(i32 noundef %0) #3 {
  %2 = alloca i32, align 4
  %3 = alloca ptr, align 8
  store i32 %0, ptr %2, align 4, !tbaa !14
  call void @llvm.lifetime.start.p0(i64 8, ptr %3) #13
  %4 = load i32, ptr %2, align 4, !tbaa !14
  %5 = call ptr @Vec_WrdAlloc(i32 noundef %4)
  store ptr %5, ptr %3, align 8, !tbaa !71
  %6 = load i32, ptr %2, align 4, !tbaa !14
  %7 = load ptr, ptr %3, align 8, !tbaa !71
  %8 = getelementptr inbounds nuw %struct.Vec_Wrd_t_, ptr %7, i32 0, i32 1
  store i32 %6, ptr %8, align 4, !tbaa !76
  %9 = load ptr, ptr %3, align 8, !tbaa !71
  %10 = getelementptr inbounds nuw %struct.Vec_Wrd_t_, ptr %9, i32 0, i32 2
  %11 = load ptr, ptr %10, align 8, !tbaa !78
  %12 = load i32, ptr %2, align 4, !tbaa !14
  %13 = sext i32 %12 to i64
  %14 = mul i64 8, %13
  call void @llvm.memset.p0.i64(ptr align 8 %11, i8 0, i64 %14, i1 false)
  %15 = load ptr, ptr %3, align 8, !tbaa !71
  call void @llvm.lifetime.end.p0(i64 8, ptr %3) #13
  ret ptr %15
}

; Function Attrs: inlinehint nounwind uwtable
define internal ptr @Vec_WrdReadBin(ptr noundef %0, i32 noundef %1) #3 {
  %3 = alloca ptr, align 8
  %4 = alloca ptr, align 8
  %5 = alloca i32, align 4
  %6 = alloca ptr, align 8
  %7 = alloca i32, align 4
  %8 = alloca i32, align 4
  %9 = alloca ptr, align 8
  %10 = alloca i32, align 4
  store ptr %0, ptr %4, align 8, !tbaa !3
  store i32 %1, ptr %5, align 4, !tbaa !14
  call void @llvm.lifetime.start.p0(i64 8, ptr %6) #13
  store ptr null, ptr %6, align 8, !tbaa !71
  call void @llvm.lifetime.start.p0(i64 4, ptr %7) #13
  call void @llvm.lifetime.start.p0(i64 4, ptr %8) #13
  call void @llvm.lifetime.start.p0(i64 8, ptr %9) #13
  %11 = load ptr, ptr %4, align 8, !tbaa !3
  %12 = call noalias ptr @fopen(ptr noundef %11, ptr noundef @.str)
  store ptr %12, ptr %9, align 8, !tbaa !10
  %13 = load ptr, ptr %9, align 8, !tbaa !10
  %14 = icmp eq ptr %13, null
  br i1 %14, label %15, label %18

15:                                               ; preds = %2
  %16 = load ptr, ptr %4, align 8, !tbaa !3
  %17 = call i32 (ptr, ...) @printf(ptr noundef @.str.1, ptr noundef %16)
  store ptr null, ptr %3, align 8
  store i32 1, ptr %10, align 4
  br label %69

18:                                               ; preds = %2
  %19 = load ptr, ptr %9, align 8, !tbaa !10
  %20 = call i32 @fseek(ptr noundef %19, i64 noundef 0, i32 noundef 2)
  %21 = load ptr, ptr %9, align 8, !tbaa !10
  %22 = call i64 @ftell(ptr noundef %21)
  %23 = trunc i64 %22 to i32
  store i32 %23, ptr %7, align 4, !tbaa !14
  %24 = load i32, ptr %7, align 4, !tbaa !14
  %25 = icmp eq i32 %24, 0
  br i1 %25, label %26, label %30

26:                                               ; preds = %18
  %27 = call i32 (ptr, ...) @printf(ptr noundef @.str.44)
  %28 = load ptr, ptr %9, align 8, !tbaa !10
  %29 = call i32 @fclose(ptr noundef %28)
  store ptr null, ptr %3, align 8
  store i32 1, ptr %10, align 4
  br label %69

30:                                               ; preds = %18
  %31 = load i32, ptr %7, align 4, !tbaa !14
  %32 = srem i32 %31, 8
  %33 = icmp sgt i32 %32, 0
  br i1 %33, label %34, label %40

34:                                               ; preds = %30
  %35 = load i32, ptr %7, align 4, !tbaa !14
  %36 = srem i32 %35, 8
  %37 = call i32 (ptr, ...) @printf(ptr noundef @.str.8, i32 noundef %36)
  %38 = load ptr, ptr %9, align 8, !tbaa !10
  %39 = call i32 @fclose(ptr noundef %38)
  store ptr null, ptr %3, align 8
  store i32 1, ptr %10, align 4
  br label %69

40:                                               ; preds = %30
  %41 = load ptr, ptr %9, align 8, !tbaa !10
  call void @rewind(ptr noundef %41)
  %42 = load i32, ptr %7, align 4, !tbaa !14
  %43 = sdiv i32 %42, 8
  %44 = call ptr @Vec_WrdStart(i32 noundef %43)
  store ptr %44, ptr %6, align 8, !tbaa !71
  %45 = load ptr, ptr %6, align 8, !tbaa !71
  %46 = call ptr @Vec_WrdArray(ptr noundef %45)
  %47 = load i32, ptr %7, align 4, !tbaa !14
  %48 = sext i32 %47 to i64
  %49 = load ptr, ptr %9, align 8, !tbaa !10
  %50 = call i64 @fread(ptr noundef %46, i64 noundef 1, i64 noundef %48, ptr noundef %49)
  %51 = trunc i64 %50 to i32
  store i32 %51, ptr %8, align 4, !tbaa !14
  %52 = load ptr, ptr %9, align 8, !tbaa !10
  %53 = call i32 @fclose(ptr noundef %52)
  %54 = load i32, ptr %8, align 4, !tbaa !14
  %55 = load i32, ptr %7, align 4, !tbaa !14
  %56 = icmp ne i32 %54, %55
  br i1 %56, label %57, label %59

57:                                               ; preds = %40
  %58 = call i32 (ptr, ...) @printf(ptr noundef @.str.42)
  br label %59

59:                                               ; preds = %57, %40
  %60 = load i32, ptr %5, align 4, !tbaa !14
  %61 = icmp ne i32 %60, 0
  br i1 %61, label %62, label %67

62:                                               ; preds = %59
  %63 = load i32, ptr %7, align 4, !tbaa !14
  %64 = sdiv i32 %63, 8
  %65 = load ptr, ptr %4, align 8, !tbaa !3
  %66 = call i32 (ptr, ...) @printf(ptr noundef @.str.45, i32 noundef %64, ptr noundef %65)
  br label %67

67:                                               ; preds = %62, %59
  %68 = load ptr, ptr %6, align 8, !tbaa !71
  store ptr %68, ptr %3, align 8
  store i32 1, ptr %10, align 4
  br label %69

69:                                               ; preds = %67, %34, %26, %15
  call void @llvm.lifetime.end.p0(i64 8, ptr %9) #13
  call void @llvm.lifetime.end.p0(i64 4, ptr %8) #13
  call void @llvm.lifetime.end.p0(i64 4, ptr %7) #13
  call void @llvm.lifetime.end.p0(i64 8, ptr %6) #13
  %70 = load ptr, ptr %3, align 8
  ret ptr %70
}