; Function Attrs: inlinehint nofree nounwind uwtable
define internal fastcc noalias noundef ptr @Vec_WrdReadBin(ptr noundef %0, i32 noundef %1) unnamed_addr #12 {
  %3 = tail call noalias ptr @fopen(ptr noundef %0, ptr noundef nonnull @.str)
  %4 = icmp eq ptr %3, null
  br i1 %4, label %5, label %7

5:                                                ; preds = %2
  %6 = tail call i32 (ptr, ...) @printf(ptr noundef nonnull dereferenceable(1) @.str.1, ptr noundef %0)
  br label %41

7:                                                ; preds = %2
  %8 = tail call i32 @fseek(ptr noundef nonnull %3, i64 noundef 0, i32 noundef 2)
  %9 = tail call i64 @ftell(ptr noundef nonnull %3)
  %10 = trunc i64 %9 to i32
  %11 = icmp eq i32 %10, 0
  br i1 %11, label %12, label %14

12:                                               ; preds = %7
  %puts26 = tail call i32 @puts(ptr nonnull dereferenceable(1) @str.2)
  %13 = tail call i32 @fclose(ptr noundef nonnull %3)
  br label %41

14:                                               ; preds = %7
  %15 = srem i32 %10, 8
  %16 = sdiv i32 %10, 8
  %17 = icmp sgt i32 %15, 0
  br i1 %17, label %18, label %21

18:                                               ; preds = %14
  %19 = tail call i32 (ptr, ...) @printf(ptr noundef nonnull dereferenceable(1) @.str.8, i32 noundef %15)
  %20 = tail call i32 @fclose(ptr noundef nonnull %3)
  br label %41

21:                                               ; preds = %14
  tail call void @rewind(ptr noundef nonnull %3)
  %22 = tail call noalias dereferenceable_or_null(16) ptr @malloc(i64 noundef 16) #25
  %23 = add nsw i32 %16, -1
  %or.cond.i.i = icmp ult i32 %23, 15
  %spec.store.select.i.i = select i1 %or.cond.i.i, i32 16, i32 %16
  store i32 %spec.store.select.i.i, ptr %22, align 8, !tbaa !56
  %.not.i.i = icmp eq i32 %spec.store.select.i.i, 0
  br i1 %.not.i.i, label %Vec_WrdStart.exit, label %24

24:                                               ; preds = %21
  %25 = sext i32 %spec.store.select.i.i to i64
  %26 = shl nsw i64 %25, 3
  %27 = tail call noalias ptr @malloc(i64 noundef %26) #25
  br label %Vec_WrdStart.exit

Vec_WrdStart.exit:                                ; preds = %21, %24
  %28 = phi ptr [ %27, %24 ], [ null, %21 ]
  %29 = getelementptr inbounds nuw i8, ptr %22, i64 4
  %30 = getelementptr inbounds nuw i8, ptr %22, i64 8
  store ptr %28, ptr %30, align 8, !tbaa !59
  store i32 %16, ptr %29, align 4, !tbaa !60
  %31 = sext i32 %16 to i64
  %32 = shl nsw i64 %31, 3
  tail call void @llvm.memset.p0.i64(ptr align 8 %28, i8 0, i64 %32, i1 false)
  %sext = shl i64 %9, 32
  %33 = ashr exact i64 %sext, 32
  %34 = tail call i64 @fread(ptr noundef %28, i64 noundef 1, i64 noundef %33, ptr noundef nonnull %3)
  %35 = trunc i64 %34 to i32
  %36 = tail call i32 @fclose(ptr noundef nonnull %3)
  %.not = icmp eq i32 %35, %10
  br i1 %.not, label %38, label %37

37:                                               ; preds = %Vec_WrdStart.exit
  %puts = tail call i32 @puts(ptr nonnull dereferenceable(1) @str.1)
  br label %38

38:                                               ; preds = %37, %Vec_WrdStart.exit
  %.not25 = icmp eq i32 %1, 0
  br i1 %.not25, label %41, label %39

39:                                               ; preds = %38
  %40 = tail call i32 (ptr, ...) @printf(ptr noundef nonnull dereferenceable(1) @.str.45, i32 noundef %16, ptr noundef %0)
  br label %41

41:                                               ; preds = %38, %39, %18, %12, %5
  %.0 = phi ptr [ null, %5 ], [ null, %12 ], [ null, %18 ], [ %22, %39 ], [ %22, %38 ]
  ret ptr %.0
}